target datalayout = "e-m:e-p270:32:32-p271:32:32-p272:64:64-i64:64-i128:128-f80:128-n8:16:32:64-S128"
target triple = "x86_64-pc-linux-gnu"

%struct.BEValue = type { i8, i32, ptr, ptr, ptr }

@type_usz = external global ptr, align 8

; Function Attrs: nounwind uwtable
define dso_local void @llvm_emit_subarray_len(ptr noundef %0, ptr noundef %1, ptr noundef %2) #0 {
  %4 = alloca ptr, align 8
  %5 = alloca ptr, align 8
  %6 = alloca ptr, align 8
  %7 = alloca i32, align 4
  %8 = alloca ptr, align 8
  store ptr %0, ptr %4, align 8
  store ptr %1, ptr %5, align 8
  store ptr %2, ptr %6, align 8
  %9 = load ptr, ptr %4, align 8
  %10 = load ptr, ptr %5, align 8
  call void @llvm_value_addr(ptr noundef %9, ptr noundef %10)
  store i32 0, ptr %7, align 4
  %11 = load ptr, ptr %4, align 8
  %12 = load ptr, ptr %5, align 8
  %13 = getelementptr inbounds %struct.BEValue, ptr %12, i32 0, i32 3
  %14 = load ptr, ptr %13, align 8
  %15 = load ptr, ptr %4, align 8
  %16 = load ptr, ptr %5, align 8
  %17 = getelementptr inbounds %struct.BEValue, ptr %16, i32 0, i32 2
  %18 = load ptr, ptr %17, align 8
  %19 = call ptr @llvm_get_type(ptr noundef %15, ptr noundef %18)
  %20 = load ptr, ptr %5, align 8
  %21 = getelementptr inbounds %struct.BEValue, ptr %20, i32 0, i32 1
  %22 = load i32, ptr %21, align 4
  %23 = call ptr @llvm_emit_struct_gep_raw(ptr noundef %11, ptr noundef %14, ptr noundef %19, i32 noundef 1, i32 noundef %22, ptr noundef %7)
  store ptr %23, ptr %8, align 8
  %24 = load ptr, ptr %6, align 8
  %25 = load ptr, ptr %8, align 8
  %26 = load ptr, ptr @type_usz, align 8
  %27 = load i32, ptr %7, align 4
  call void @llvm_value_set_address(ptr noundef %24, ptr noundef %25, ptr noundef %26, i32 noundef %27)
  ret void
}