; Function Attrs: nounwind uwtable
define dso_local void @llvm_emit_subarray_len(ptr noundef %0, ptr noundef %1, ptr noundef %2) local_unnamed_addr #0 {
  %4 = alloca i32, align 4
  tail call void @llvm_value_addr(ptr noundef %0, ptr noundef %1) #10
  store i32 0, ptr %4, align 4
  %5 = getelementptr inbounds i8, ptr %1, i64 16
  %6 = load ptr, ptr %5, align 8
  %7 = getelementptr inbounds i8, ptr %1, i64 8
  %8 = load ptr, ptr %7, align 8
  %9 = tail call ptr @llvm_get_type(ptr noundef %0, ptr noundef %8) #10
  %10 = getelementptr inbounds i8, ptr %1, i64 4
  %11 = load i32, ptr %10, align 4
  %12 = call ptr @llvm_emit_struct_gep_raw(ptr noundef %0, ptr noundef %6, ptr noundef %9, i32 noundef 1, i32 noundef %11, ptr noundef nonnull %4)
  %13 = load ptr, ptr @type_usz, align 8
  %14 = load i32, ptr %4, align 4
  tail call void @llvm_value_set_address(ptr noundef %2, ptr noundef %12, ptr noundef %13, i32 noundef %14) #10
  ret void
}